target datalayout = "e-m:e-p270:32:32-p271:32:32-p272:64:64-i64:64-i128:128-f80:128-n8:16:32:64-S128"
target triple = "x86_64-pc-linux-gnu"

; Function Attrs: nounwind uwtable
define hidden i64 @lj_carith_powu64(i64 noundef %0, i64 noundef %1) #0 {
  %3 = alloca i64, align 8
  %4 = alloca i64, align 8
  %5 = alloca i64, align 8
  %6 = alloca i64, align 8
  %7 = alloca i32, align 4
  store i64 %0, ptr %4, align 8, !tbaa !58
  store i64 %1, ptr %5, align 8, !tbaa !58
  call void @llvm.lifetime.start.p0(i64 8, ptr %6) #7
  %8 = load i64, ptr %5, align 8, !tbaa !58
  %9 = icmp eq i64 %8, 0
  br i1 %9, label %10, label %11

10:                                               ; preds = %2
  store i64 1, ptr %3, align 8
  store i32 1, ptr %7, align 4
  br label %53

11:                                               ; preds = %2
  br label %12

12:                                               ; preds = %20, %11
  %13 = load i64, ptr %5, align 8, !tbaa !58
  %14 = and i64 %13, 1
  %15 = icmp eq i64 %14, 0
  br i1 %15, label %16, label %23

16:                                               ; preds = %12
  %17 = load i64, ptr %4, align 8, !tbaa !58
  %18 = load i64, ptr %4, align 8, !tbaa !58
  %19 = mul i64 %18, %17
  store i64 %19, ptr %4, align 8, !tbaa !58
  br label %20

20:                                               ; preds = %16
  %21 = load i64, ptr %5, align 8, !tbaa !58
  %22 = lshr i64 %21, 1
  store i64 %22, ptr %5, align 8, !tbaa !58
  br label %12, !llvm.loop !69

23:                                               ; preds = %12
  %24 = load i64, ptr %4, align 8, !tbaa !58
  store i64 %24, ptr %6, align 8, !tbaa !58
  %25 = load i64, ptr %5, align 8, !tbaa !58
  %26 = lshr i64 %25, 1
  store i64 %26, ptr %5, align 8, !tbaa !58
  %27 = icmp ne i64 %26, 0
  br i1 %27, label %28, label %51

28:                                               ; preds = %23
  br label %29

29:                                               ; preds = %44, %28
  %30 = load i64, ptr %4, align 8, !tbaa !58
  %31 = load i64, ptr %4, align 8, !tbaa !58
  %32 = mul i64 %31, %30
  store i64 %32, ptr %4, align 8, !tbaa !58
  %33 = load i64, ptr %5, align 8, !tbaa !58
  %34 = icmp eq i64 %33, 1
  br i1 %34, label %35, label %36

35:                                               ; preds = %29
  br label %47

36:                                               ; preds = %29
  %37 = load i64, ptr %5, align 8, !tbaa !58
  %38 = and i64 %37, 1
  %39 = icmp ne i64 %38, 0
  br i1 %39, label %40, label %44

40:                                               ; preds = %36
  %41 = load i64, ptr %4, align 8, !tbaa !58
  %42 = load i64, ptr %6, align 8, !tbaa !58
  %43 = mul i64 %42, %41
  store i64 %43, ptr %6, align 8, !tbaa !58
  br label %44

44:                                               ; preds = %40, %36
  %45 = load i64, ptr %5, align 8, !tbaa !58
  %46 = lshr i64 %45, 1
  store i64 %46, ptr %5, align 8, !tbaa !58
  br label %29

47:                                               ; preds = %35
  %48 = load i64, ptr %4, align 8, !tbaa !58
  %49 = load i64, ptr %6, align 8, !tbaa !58
  %50 = mul i64 %49, %48
  store i64 %50, ptr %6, align 8, !tbaa !58
  br label %51

51:                                               ; preds = %47, %23
  %52 = load i64, ptr %6, align 8, !tbaa !58
  store i64 %52, ptr %3, align 8
  store i32 1, ptr %7, align 4
  br label %53

53:                                               ; preds = %51, %10
  call void @llvm.lifetime.end.p0(i64 8, ptr %6) #7
  %54 = load i64, ptr %3, align 8
  ret i64 %54
}