; Function Attrs: nofree norecurse nosync nounwind memory(none) uwtable
define hidden i64 @lj_carith_powu64(i64 noundef %0, i64 noundef %1) local_unnamed_addr #5 {
  %3 = icmp eq i64 %1, 0
  br i1 %3, label %18, label %.preheader26

.preheader26:                                     ; preds = %2
  %4 = and i64 %1, 1
  %5 = icmp eq i64 %4, 0
  br i1 %5, label %.lr.ph, label %._crit_edge

.lr.ph:                                           ; preds = %.preheader26, %.lr.ph
  %.01828 = phi i64 [ %7, %.lr.ph ], [ %1, %.preheader26 ]
  %.02027 = phi i64 [ %6, %.lr.ph ], [ %0, %.preheader26 ]
  %6 = mul i64 %.02027, %.02027
  %7 = lshr exact i64 %.01828, 1
  %8 = and i64 %.01828, 2
  %9 = icmp eq i64 %8, 0
  br i1 %9, label %.lr.ph, label %._crit_edge, !llvm.loop !58

._crit_edge:                                      ; preds = %.lr.ph, %.preheader26
  %.020.lcssa = phi i64 [ %0, %.preheader26 ], [ %6, %.lr.ph ]
  %.018.lcssa = phi i64 [ %1, %.preheader26 ], [ %7, %.lr.ph ]
  %.not = icmp ult i64 %.018.lcssa, 2
  br i1 %.not, label %18, label %.preheader

.preheader:                                       ; preds = %._crit_edge
  %.11930 = lshr i64 %.018.lcssa, 1
  %10 = mul i64 %.020.lcssa, %.020.lcssa
  %11 = icmp eq i64 %.11930, 1
  br i1 %11, label %._crit_edge35, label %.lr.ph34

.lr.ph34:                                         ; preds = %.preheader, %.lr.ph34
  %12 = phi i64 [ %15, %.lr.ph34 ], [ %10, %.preheader ]
  %.11933 = phi i64 [ %.119, %.lr.ph34 ], [ %.11930, %.preheader ]
  %.132 = phi i64 [ %spec.select, %.lr.ph34 ], [ %.020.lcssa, %.preheader ]
  %.119.in31 = phi i64 [ %.11933, %.lr.ph34 ], [ %.018.lcssa, %.preheader ]
  %13 = and i64 %.119.in31, 2
  %.not25 = icmp eq i64 %13, 0
  %14 = select i1 %.not25, i64 1, i64 %12
  %spec.select = mul i64 %14, %.132
  %.119 = lshr i64 %.11933, 1
  %15 = mul i64 %12, %12
  %16 = icmp eq i64 %.119, 1
  br i1 %16, label %._crit_edge35, label %.lr.ph34

._crit_edge35:                                    ; preds = %.lr.ph34, %.preheader
  %.1.lcssa = phi i64 [ %.020.lcssa, %.preheader ], [ %spec.select, %.lr.ph34 ]
  %.lcssa = phi i64 [ %10, %.preheader ], [ %15, %.lr.ph34 ]
  %17 = mul i64 %.1.lcssa, %.lcssa
  br label %18

18:                                               ; preds = %._crit_edge, %._crit_edge35, %2
  %.022 = phi i64 [ 1, %2 ], [ %17, %._crit_edge35 ], [ %.020.lcssa, %._crit_edge ]
  ret i64 %.022
}